ARM GAS  C:\Users\AHMEDA~1\AppData\Local\Temp\ccO1z9EI.s 			page 1


   1              		.cpu cortex-m3
   2              		.eabi_attribute 20, 1
   3              		.eabi_attribute 21, 1
   4              		.eabi_attribute 23, 3
   5              		.eabi_attribute 24, 1
   6              		.eabi_attribute 25, 1
   7              		.eabi_attribute 26, 1
   8              		.eabi_attribute 30, 1
   9              		.eabi_attribute 34, 1
  10              		.eabi_attribute 18, 4
  11              		.file	"main.c"
  12              		.text
  13              	.Ltext0:
  14              		.cfi_sections	.debug_frame
  15              		.section	.text.MX_GPIO_Init,"ax",%progbits
  16              		.align	1
  17              		.arch armv7-m
  18              		.syntax unified
  19              		.thumb
  20              		.thumb_func
  21              		.fpu softvfp
  23              	MX_GPIO_Init:
  24              	.LFB68:
  25              		.file 1 "Core/Src/main.c"
   1:Core/Src/main.c **** /* USER CODE BEGIN Header */
   2:Core/Src/main.c **** /**
   3:Core/Src/main.c ****   ******************************************************************************
   4:Core/Src/main.c ****   * @file           : main.c
   5:Core/Src/main.c ****   * @brief          : Main program body
   6:Core/Src/main.c ****   ******************************************************************************
   7:Core/Src/main.c ****   * @attention
   8:Core/Src/main.c ****   *
   9:Core/Src/main.c ****   * <h2><center>&copy; Copyright (c) 2021 STMicroelectronics.
  10:Core/Src/main.c ****   * All rights reserved.</center></h2>
  11:Core/Src/main.c ****   *
  12:Core/Src/main.c ****   * This software component is licensed by ST under BSD 3-Clause license,
  13:Core/Src/main.c ****   * the "License"; You may not use this file except in compliance with the
  14:Core/Src/main.c ****   * License. You may obtain a copy of the License at:
  15:Core/Src/main.c ****   *                        opensource.org/licenses/BSD-3-Clause
  16:Core/Src/main.c ****   *
  17:Core/Src/main.c ****   ******************************************************************************
  18:Core/Src/main.c ****   */
  19:Core/Src/main.c **** /* USER CODE END Header */
  20:Core/Src/main.c **** /* Includes ------------------------------------------------------------------*/
  21:Core/Src/main.c **** #include "main.h"
  22:Core/Src/main.c **** 
  23:Core/Src/main.c **** /* Private includes ----------------------------------------------------------*/
  24:Core/Src/main.c **** /* USER CODE BEGIN Includes */
  25:Core/Src/main.c **** 
  26:Core/Src/main.c **** /* USER CODE END Includes */
  27:Core/Src/main.c **** 
  28:Core/Src/main.c **** /* Private typedef -----------------------------------------------------------*/
  29:Core/Src/main.c **** /* USER CODE BEGIN PTD */
  30:Core/Src/main.c **** 
  31:Core/Src/main.c **** /* USER CODE END PTD */
  32:Core/Src/main.c **** 
  33:Core/Src/main.c **** /* Private define ------------------------------------------------------------*/
ARM GAS  C:\Users\AHMEDA~1\AppData\Local\Temp\ccO1z9EI.s 			page 2


  34:Core/Src/main.c **** /* USER CODE BEGIN PD */
  35:Core/Src/main.c **** /* USER CODE END PD */
  36:Core/Src/main.c **** 
  37:Core/Src/main.c **** /* Private macro -------------------------------------------------------------*/
  38:Core/Src/main.c **** /* USER CODE BEGIN PM */
  39:Core/Src/main.c **** 
  40:Core/Src/main.c **** /* USER CODE END PM */
  41:Core/Src/main.c **** 
  42:Core/Src/main.c **** /* Private variables ---------------------------------------------------------*/
  43:Core/Src/main.c **** UART_HandleTypeDef huart2;
  44:Core/Src/main.c **** 
  45:Core/Src/main.c **** /* USER CODE BEGIN PV */
  46:Core/Src/main.c **** 
  47:Core/Src/main.c **** /* USER CODE END PV */
  48:Core/Src/main.c **** 
  49:Core/Src/main.c **** /* Private function prototypes -----------------------------------------------*/
  50:Core/Src/main.c **** void SystemClock_Config(void);
  51:Core/Src/main.c **** static void MX_GPIO_Init(void);
  52:Core/Src/main.c **** static void MX_USART2_UART_Init(void);
  53:Core/Src/main.c **** /* USER CODE BEGIN PFP */
  54:Core/Src/main.c **** 
  55:Core/Src/main.c **** /* USER CODE END PFP */
  56:Core/Src/main.c **** 
  57:Core/Src/main.c **** /* Private user code ---------------------------------------------------------*/
  58:Core/Src/main.c **** /* USER CODE BEGIN 0 */
  59:Core/Src/main.c **** 
  60:Core/Src/main.c **** /* USER CODE END 0 */
  61:Core/Src/main.c **** 
  62:Core/Src/main.c **** /**
  63:Core/Src/main.c ****   * @brief  The application entry point.
  64:Core/Src/main.c ****   * @retval int
  65:Core/Src/main.c ****   */
  66:Core/Src/main.c **** int main(void)
  67:Core/Src/main.c **** {
  68:Core/Src/main.c ****   /* USER CODE BEGIN 1 */
  69:Core/Src/main.c **** 
  70:Core/Src/main.c ****   /* USER CODE END 1 */
  71:Core/Src/main.c **** 
  72:Core/Src/main.c ****   /* MCU Configuration--------------------------------------------------------*/
  73:Core/Src/main.c **** 
  74:Core/Src/main.c ****   /* Reset of all peripherals, Initializes the Flash interface and the Systick. */
  75:Core/Src/main.c ****   HAL_Init();
  76:Core/Src/main.c **** 
  77:Core/Src/main.c ****   /* USER CODE BEGIN Init */
  78:Core/Src/main.c **** 
  79:Core/Src/main.c ****   /* USER CODE END Init */
  80:Core/Src/main.c **** 
  81:Core/Src/main.c ****   /* Configure the system clock */
  82:Core/Src/main.c ****   SystemClock_Config();
  83:Core/Src/main.c **** 
  84:Core/Src/main.c ****   /* USER CODE BEGIN SysInit */
  85:Core/Src/main.c **** 
  86:Core/Src/main.c ****   /* USER CODE END SysInit */
  87:Core/Src/main.c **** 
  88:Core/Src/main.c ****   /* Initialize all configured peripherals */
  89:Core/Src/main.c ****   MX_GPIO_Init();
  90:Core/Src/main.c ****   MX_USART2_UART_Init();
ARM GAS  C:\Users\AHMEDA~1\AppData\Local\Temp\ccO1z9EI.s 			page 3


  91:Core/Src/main.c ****   /* USER CODE BEGIN 2 */
  92:Core/Src/main.c **** 
  93:Core/Src/main.c ****   /* USER CODE END 2 */
  94:Core/Src/main.c **** 
  95:Core/Src/main.c ****   /* Infinite loop */
  96:Core/Src/main.c ****   /* USER CODE BEGIN WHILE */
  97:Core/Src/main.c ****   while (1)
  98:Core/Src/main.c ****   {
  99:Core/Src/main.c ****     /* USER CODE END WHILE */
 100:Core/Src/main.c **** 
 101:Core/Src/main.c ****     /* USER CODE BEGIN 3 */
 102:Core/Src/main.c ****   }
 103:Core/Src/main.c ****   /* USER CODE END 3 */
 104:Core/Src/main.c **** }
 105:Core/Src/main.c **** 
 106:Core/Src/main.c **** /**
 107:Core/Src/main.c ****   * @brief System Clock Configuration
 108:Core/Src/main.c ****   * @retval None
 109:Core/Src/main.c ****   */
 110:Core/Src/main.c **** void SystemClock_Config(void)
 111:Core/Src/main.c **** {
 112:Core/Src/main.c ****   RCC_OscInitTypeDef RCC_OscInitStruct = {0};
 113:Core/Src/main.c ****   RCC_ClkInitTypeDef RCC_ClkInitStruct = {0};
 114:Core/Src/main.c **** 
 115:Core/Src/main.c ****   /** Initializes the RCC Oscillators according to the specified parameters
 116:Core/Src/main.c ****   * in the RCC_OscInitTypeDef structure.
 117:Core/Src/main.c ****   */
 118:Core/Src/main.c ****   RCC_OscInitStruct.OscillatorType = RCC_OSCILLATORTYPE_HSE;
 119:Core/Src/main.c ****   RCC_OscInitStruct.HSEState = RCC_HSE_ON;
 120:Core/Src/main.c ****   RCC_OscInitStruct.HSEPredivValue = RCC_HSE_PREDIV_DIV1;
 121:Core/Src/main.c ****   RCC_OscInitStruct.HSIState = RCC_HSI_ON;
 122:Core/Src/main.c ****   RCC_OscInitStruct.PLL.PLLState = RCC_PLL_ON;
 123:Core/Src/main.c ****   RCC_OscInitStruct.PLL.PLLSource = RCC_PLLSOURCE_HSE;
 124:Core/Src/main.c ****   RCC_OscInitStruct.PLL.PLLMUL = RCC_PLL_MUL9;
 125:Core/Src/main.c ****   if (HAL_RCC_OscConfig(&RCC_OscInitStruct) != HAL_OK)
 126:Core/Src/main.c ****   {
 127:Core/Src/main.c ****     Error_Handler();
 128:Core/Src/main.c ****   }
 129:Core/Src/main.c ****   /** Initializes the CPU, AHB and APB buses clocks
 130:Core/Src/main.c ****   */
 131:Core/Src/main.c ****   RCC_ClkInitStruct.ClockType = RCC_CLOCKTYPE_HCLK|RCC_CLOCKTYPE_SYSCLK
 132:Core/Src/main.c ****                               |RCC_CLOCKTYPE_PCLK1|RCC_CLOCKTYPE_PCLK2;
 133:Core/Src/main.c ****   RCC_ClkInitStruct.SYSCLKSource = RCC_SYSCLKSOURCE_PLLCLK;
 134:Core/Src/main.c ****   RCC_ClkInitStruct.AHBCLKDivider = RCC_SYSCLK_DIV1;
 135:Core/Src/main.c ****   RCC_ClkInitStruct.APB1CLKDivider = RCC_HCLK_DIV2;
 136:Core/Src/main.c ****   RCC_ClkInitStruct.APB2CLKDivider = RCC_HCLK_DIV1;
 137:Core/Src/main.c **** 
 138:Core/Src/main.c ****   if (HAL_RCC_ClockConfig(&RCC_ClkInitStruct, FLASH_LATENCY_2) != HAL_OK)
 139:Core/Src/main.c ****   {
 140:Core/Src/main.c ****     Error_Handler();
 141:Core/Src/main.c ****   }
 142:Core/Src/main.c **** }
 143:Core/Src/main.c **** 
 144:Core/Src/main.c **** /**
 145:Core/Src/main.c ****   * @brief USART2 Initialization Function
 146:Core/Src/main.c ****   * @param None
 147:Core/Src/main.c ****   * @retval None
ARM GAS  C:\Users\AHMEDA~1\AppData\Local\Temp\ccO1z9EI.s 			page 4


 148:Core/Src/main.c ****   */
 149:Core/Src/main.c **** static void MX_USART2_UART_Init(void)
 150:Core/Src/main.c **** {
 151:Core/Src/main.c **** 
 152:Core/Src/main.c ****   /* USER CODE BEGIN USART2_Init 0 */
 153:Core/Src/main.c **** 
 154:Core/Src/main.c ****   /* USER CODE END USART2_Init 0 */
 155:Core/Src/main.c **** 
 156:Core/Src/main.c ****   /* USER CODE BEGIN USART2_Init 1 */
 157:Core/Src/main.c **** 
 158:Core/Src/main.c ****   /* USER CODE END USART2_Init 1 */
 159:Core/Src/main.c ****   huart2.Instance = USART2;
 160:Core/Src/main.c ****   huart2.Init.BaudRate = 115200;
 161:Core/Src/main.c ****   huart2.Init.WordLength = UART_WORDLENGTH_8B;
 162:Core/Src/main.c ****   huart2.Init.StopBits = UART_STOPBITS_1;
 163:Core/Src/main.c ****   huart2.Init.Parity = UART_PARITY_NONE;
 164:Core/Src/main.c ****   huart2.Init.Mode = UART_MODE_TX_RX;
 165:Core/Src/main.c ****   huart2.Init.HwFlowCtl = UART_HWCONTROL_NONE;
 166:Core/Src/main.c ****   huart2.Init.OverSampling = UART_OVERSAMPLING_16;
 167:Core/Src/main.c ****   if (HAL_UART_Init(&huart2) != HAL_OK)
 168:Core/Src/main.c ****   {
 169:Core/Src/main.c ****     Error_Handler();
 170:Core/Src/main.c ****   }
 171:Core/Src/main.c ****   /* USER CODE BEGIN USART2_Init 2 */
 172:Core/Src/main.c **** 
 173:Core/Src/main.c ****   /* USER CODE END USART2_Init 2 */
 174:Core/Src/main.c **** 
 175:Core/Src/main.c **** }
 176:Core/Src/main.c **** 
 177:Core/Src/main.c **** /**
 178:Core/Src/main.c ****   * @brief GPIO Initialization Function
 179:Core/Src/main.c ****   * @param None
 180:Core/Src/main.c ****   * @retval None
 181:Core/Src/main.c ****   */
 182:Core/Src/main.c **** static void MX_GPIO_Init(void)
 183:Core/Src/main.c **** {
  26              		.loc 1 183 1 view -0
  27              		.cfi_startproc
  28              		@ args = 0, pretend = 0, frame = 32
  29              		@ frame_needed = 0, uses_anonymous_args = 0
  30 0000 30B5     		push	{r4, r5, lr}
  31              	.LCFI0:
  32              		.cfi_def_cfa_offset 12
  33              		.cfi_offset 4, -12
  34              		.cfi_offset 5, -8
  35              		.cfi_offset 14, -4
  36 0002 89B0     		sub	sp, sp, #36
  37              	.LCFI1:
  38              		.cfi_def_cfa_offset 48
 184:Core/Src/main.c ****   GPIO_InitTypeDef GPIO_InitStruct = {0};
  39              		.loc 1 184 3 view .LVU1
  40              		.loc 1 184 20 is_stmt 0 view .LVU2
  41 0004 0024     		movs	r4, #0
  42 0006 0494     		str	r4, [sp, #16]
  43 0008 0594     		str	r4, [sp, #20]
  44 000a 0694     		str	r4, [sp, #24]
  45 000c 0794     		str	r4, [sp, #28]
ARM GAS  C:\Users\AHMEDA~1\AppData\Local\Temp\ccO1z9EI.s 			page 5


 185:Core/Src/main.c **** 
 186:Core/Src/main.c ****   /* GPIO Ports Clock Enable */
 187:Core/Src/main.c ****   __HAL_RCC_GPIOD_CLK_ENABLE();
  46              		.loc 1 187 3 is_stmt 1 view .LVU3
  47              	.LBB4:
  48              		.loc 1 187 3 view .LVU4
  49              		.loc 1 187 3 view .LVU5
  50 000e 184B     		ldr	r3, .L3
  51 0010 9A69     		ldr	r2, [r3, #24]
  52 0012 42F02002 		orr	r2, r2, #32
  53 0016 9A61     		str	r2, [r3, #24]
  54              		.loc 1 187 3 view .LVU6
  55 0018 9A69     		ldr	r2, [r3, #24]
  56 001a 02F02002 		and	r2, r2, #32
  57 001e 0192     		str	r2, [sp, #4]
  58              		.loc 1 187 3 view .LVU7
  59 0020 019A     		ldr	r2, [sp, #4]
  60              	.LBE4:
  61              		.loc 1 187 3 view .LVU8
 188:Core/Src/main.c ****   __HAL_RCC_GPIOA_CLK_ENABLE();
  62              		.loc 1 188 3 view .LVU9
  63              	.LBB5:
  64              		.loc 1 188 3 view .LVU10
  65              		.loc 1 188 3 view .LVU11
  66 0022 9A69     		ldr	r2, [r3, #24]
  67 0024 42F00402 		orr	r2, r2, #4
  68 0028 9A61     		str	r2, [r3, #24]
  69              		.loc 1 188 3 view .LVU12
  70 002a 9A69     		ldr	r2, [r3, #24]
  71 002c 02F00402 		and	r2, r2, #4
  72 0030 0292     		str	r2, [sp, #8]
  73              		.loc 1 188 3 view .LVU13
  74 0032 029A     		ldr	r2, [sp, #8]
  75              	.LBE5:
  76              		.loc 1 188 3 view .LVU14
 189:Core/Src/main.c ****   __HAL_RCC_GPIOB_CLK_ENABLE();
  77              		.loc 1 189 3 view .LVU15
  78              	.LBB6:
  79              		.loc 1 189 3 view .LVU16
  80              		.loc 1 189 3 view .LVU17
  81 0034 9A69     		ldr	r2, [r3, #24]
  82 0036 42F00802 		orr	r2, r2, #8
  83 003a 9A61     		str	r2, [r3, #24]
  84              		.loc 1 189 3 view .LVU18
  85 003c 9B69     		ldr	r3, [r3, #24]
  86 003e 03F00803 		and	r3, r3, #8
  87 0042 0393     		str	r3, [sp, #12]
  88              		.loc 1 189 3 view .LVU19
  89 0044 039B     		ldr	r3, [sp, #12]
  90              	.LBE6:
  91              		.loc 1 189 3 view .LVU20
 190:Core/Src/main.c **** 
 191:Core/Src/main.c ****   /*Configure GPIO pin Output Level */
 192:Core/Src/main.c ****   HAL_GPIO_WritePin(GPIOB, GPIO_PIN_13, GPIO_PIN_RESET);
  92              		.loc 1 192 3 view .LVU21
  93 0046 0B4D     		ldr	r5, .L3+4
  94 0048 2246     		mov	r2, r4
ARM GAS  C:\Users\AHMEDA~1\AppData\Local\Temp\ccO1z9EI.s 			page 6


  95 004a 4FF40051 		mov	r1, #8192
  96 004e 2846     		mov	r0, r5
  97 0050 FFF7FEFF 		bl	HAL_GPIO_WritePin
  98              	.LVL0:
 193:Core/Src/main.c **** 
 194:Core/Src/main.c ****   /*Configure GPIO pin : PB13 */
 195:Core/Src/main.c ****   GPIO_InitStruct.Pin = GPIO_PIN_13;
  99              		.loc 1 195 3 view .LVU22
 100              		.loc 1 195 23 is_stmt 0 view .LVU23
 101 0054 4FF40053 		mov	r3, #8192
 102 0058 0493     		str	r3, [sp, #16]
 196:Core/Src/main.c ****   GPIO_InitStruct.Mode = GPIO_MODE_OUTPUT_PP;
 103              		.loc 1 196 3 is_stmt 1 view .LVU24
 104              		.loc 1 196 24 is_stmt 0 view .LVU25
 105 005a 0123     		movs	r3, #1
 106 005c 0593     		str	r3, [sp, #20]
 197:Core/Src/main.c ****   GPIO_InitStruct.Pull = GPIO_NOPULL;
 107              		.loc 1 197 3 is_stmt 1 view .LVU26
 108              		.loc 1 197 24 is_stmt 0 view .LVU27
 109 005e 0694     		str	r4, [sp, #24]
 198:Core/Src/main.c ****   GPIO_InitStruct.Speed = GPIO_SPEED_FREQ_LOW;
 110              		.loc 1 198 3 is_stmt 1 view .LVU28
 111              		.loc 1 198 25 is_stmt 0 view .LVU29
 112 0060 0223     		movs	r3, #2
 113 0062 0793     		str	r3, [sp, #28]
 199:Core/Src/main.c ****   HAL_GPIO_Init(GPIOB, &GPIO_InitStruct);
 114              		.loc 1 199 3 is_stmt 1 view .LVU30
 115 0064 04A9     		add	r1, sp, #16
 116 0066 2846     		mov	r0, r5
 117 0068 FFF7FEFF 		bl	HAL_GPIO_Init
 118              	.LVL1:
 200:Core/Src/main.c **** 
 201:Core/Src/main.c **** }
 119              		.loc 1 201 1 is_stmt 0 view .LVU31
 120 006c 09B0     		add	sp, sp, #36
 121              	.LCFI2:
 122              		.cfi_def_cfa_offset 12
 123              		@ sp needed
 124 006e 30BD     		pop	{r4, r5, pc}
 125              	.L4:
 126              		.align	2
 127              	.L3:
 128 0070 00100240 		.word	1073876992
 129 0074 000C0140 		.word	1073810432
 130              		.cfi_endproc
 131              	.LFE68:
 133              		.section	.text.Error_Handler,"ax",%progbits
 134              		.align	1
 135              		.global	Error_Handler
 136              		.syntax unified
 137              		.thumb
 138              		.thumb_func
 139              		.fpu softvfp
 141              	Error_Handler:
 142              	.LFB69:
 202:Core/Src/main.c **** 
 203:Core/Src/main.c **** /* USER CODE BEGIN 4 */
ARM GAS  C:\Users\AHMEDA~1\AppData\Local\Temp\ccO1z9EI.s 			page 7


 204:Core/Src/main.c **** 
 205:Core/Src/main.c **** /* USER CODE END 4 */
 206:Core/Src/main.c **** 
 207:Core/Src/main.c **** /**
 208:Core/Src/main.c ****   * @brief  This function is executed in case of error occurrence.
 209:Core/Src/main.c ****   * @retval None
 210:Core/Src/main.c ****   */
 211:Core/Src/main.c **** void Error_Handler(void)
 212:Core/Src/main.c **** {
 143              		.loc 1 212 1 is_stmt 1 view -0
 144              		.cfi_startproc
 145              		@ Volatile: function does not return.
 146              		@ args = 0, pretend = 0, frame = 0
 147              		@ frame_needed = 0, uses_anonymous_args = 0
 148              		@ link register save eliminated.
 213:Core/Src/main.c ****   /* USER CODE BEGIN Error_Handler_Debug */
 214:Core/Src/main.c ****   /* User can add his own implementation to report the HAL error return state */
 215:Core/Src/main.c ****   __disable_irq();
 149              		.loc 1 215 3 view .LVU33
 150              	.LBB7:
 151              	.LBI7:
 152              		.file 2 "Drivers/CMSIS/Include/cmsis_gcc.h"
   1:Drivers/CMSIS/Include/cmsis_gcc.h **** /**************************************************************************//**
   2:Drivers/CMSIS/Include/cmsis_gcc.h ****  * @file     cmsis_gcc.h
   3:Drivers/CMSIS/Include/cmsis_gcc.h ****  * @brief    CMSIS compiler GCC header file
   4:Drivers/CMSIS/Include/cmsis_gcc.h ****  * @version  V5.0.4
   5:Drivers/CMSIS/Include/cmsis_gcc.h ****  * @date     09. April 2018
   6:Drivers/CMSIS/Include/cmsis_gcc.h ****  ******************************************************************************/
   7:Drivers/CMSIS/Include/cmsis_gcc.h **** /*
   8:Drivers/CMSIS/Include/cmsis_gcc.h ****  * Copyright (c) 2009-2018 Arm Limited. All rights reserved.
   9:Drivers/CMSIS/Include/cmsis_gcc.h ****  *
  10:Drivers/CMSIS/Include/cmsis_gcc.h ****  * SPDX-License-Identifier: Apache-2.0
  11:Drivers/CMSIS/Include/cmsis_gcc.h ****  *
  12:Drivers/CMSIS/Include/cmsis_gcc.h ****  * Licensed under the Apache License, Version 2.0 (the License); you may
  13:Drivers/CMSIS/Include/cmsis_gcc.h ****  * not use this file except in compliance with the License.
  14:Drivers/CMSIS/Include/cmsis_gcc.h ****  * You may obtain a copy of the License at
  15:Drivers/CMSIS/Include/cmsis_gcc.h ****  *
  16:Drivers/CMSIS/Include/cmsis_gcc.h ****  * www.apache.org/licenses/LICENSE-2.0
  17:Drivers/CMSIS/Include/cmsis_gcc.h ****  *
  18:Drivers/CMSIS/Include/cmsis_gcc.h ****  * Unless required by applicable law or agreed to in writing, software
  19:Drivers/CMSIS/Include/cmsis_gcc.h ****  * distributed under the License is distributed on an AS IS BASIS, WITHOUT
  20:Drivers/CMSIS/Include/cmsis_gcc.h ****  * WARRANTIES OR CONDITIONS OF ANY KIND, either express or implied.
  21:Drivers/CMSIS/Include/cmsis_gcc.h ****  * See the License for the specific language governing permissions and
  22:Drivers/CMSIS/Include/cmsis_gcc.h ****  * limitations under the License.
  23:Drivers/CMSIS/Include/cmsis_gcc.h ****  */
  24:Drivers/CMSIS/Include/cmsis_gcc.h **** 
  25:Drivers/CMSIS/Include/cmsis_gcc.h **** #ifndef __CMSIS_GCC_H
  26:Drivers/CMSIS/Include/cmsis_gcc.h **** #define __CMSIS_GCC_H
  27:Drivers/CMSIS/Include/cmsis_gcc.h **** 
  28:Drivers/CMSIS/Include/cmsis_gcc.h **** /* ignore some GCC warnings */
  29:Drivers/CMSIS/Include/cmsis_gcc.h **** #pragma GCC diagnostic push
  30:Drivers/CMSIS/Include/cmsis_gcc.h **** #pragma GCC diagnostic ignored "-Wsign-conversion"
  31:Drivers/CMSIS/Include/cmsis_gcc.h **** #pragma GCC diagnostic ignored "-Wconversion"
  32:Drivers/CMSIS/Include/cmsis_gcc.h **** #pragma GCC diagnostic ignored "-Wunused-parameter"
  33:Drivers/CMSIS/Include/cmsis_gcc.h **** 
  34:Drivers/CMSIS/Include/cmsis_gcc.h **** /* Fallback for __has_builtin */
  35:Drivers/CMSIS/Include/cmsis_gcc.h **** #ifndef __has_builtin
ARM GAS  C:\Users\AHMEDA~1\AppData\Local\Temp\ccO1z9EI.s 			page 8


  36:Drivers/CMSIS/Include/cmsis_gcc.h ****   #define __has_builtin(x) (0)
  37:Drivers/CMSIS/Include/cmsis_gcc.h **** #endif
  38:Drivers/CMSIS/Include/cmsis_gcc.h **** 
  39:Drivers/CMSIS/Include/cmsis_gcc.h **** /* CMSIS compiler specific defines */
  40:Drivers/CMSIS/Include/cmsis_gcc.h **** #ifndef   __ASM
  41:Drivers/CMSIS/Include/cmsis_gcc.h ****   #define __ASM                                  __asm
  42:Drivers/CMSIS/Include/cmsis_gcc.h **** #endif
  43:Drivers/CMSIS/Include/cmsis_gcc.h **** #ifndef   __INLINE
  44:Drivers/CMSIS/Include/cmsis_gcc.h ****   #define __INLINE                               inline
  45:Drivers/CMSIS/Include/cmsis_gcc.h **** #endif
  46:Drivers/CMSIS/Include/cmsis_gcc.h **** #ifndef   __STATIC_INLINE
  47:Drivers/CMSIS/Include/cmsis_gcc.h ****   #define __STATIC_INLINE                        static inline
  48:Drivers/CMSIS/Include/cmsis_gcc.h **** #endif
  49:Drivers/CMSIS/Include/cmsis_gcc.h **** #ifndef   __STATIC_FORCEINLINE                 
  50:Drivers/CMSIS/Include/cmsis_gcc.h ****   #define __STATIC_FORCEINLINE                   __attribute__((always_inline)) static inline
  51:Drivers/CMSIS/Include/cmsis_gcc.h **** #endif                                           
  52:Drivers/CMSIS/Include/cmsis_gcc.h **** #ifndef   __NO_RETURN
  53:Drivers/CMSIS/Include/cmsis_gcc.h ****   #define __NO_RETURN                            __attribute__((__noreturn__))
  54:Drivers/CMSIS/Include/cmsis_gcc.h **** #endif
  55:Drivers/CMSIS/Include/cmsis_gcc.h **** #ifndef   __USED
  56:Drivers/CMSIS/Include/cmsis_gcc.h ****   #define __USED                                 __attribute__((used))
  57:Drivers/CMSIS/Include/cmsis_gcc.h **** #endif
  58:Drivers/CMSIS/Include/cmsis_gcc.h **** #ifndef   __WEAK
  59:Drivers/CMSIS/Include/cmsis_gcc.h ****   #define __WEAK                                 __attribute__((weak))
  60:Drivers/CMSIS/Include/cmsis_gcc.h **** #endif
  61:Drivers/CMSIS/Include/cmsis_gcc.h **** #ifndef   __PACKED
  62:Drivers/CMSIS/Include/cmsis_gcc.h ****   #define __PACKED                               __attribute__((packed, aligned(1)))
  63:Drivers/CMSIS/Include/cmsis_gcc.h **** #endif
  64:Drivers/CMSIS/Include/cmsis_gcc.h **** #ifndef   __PACKED_STRUCT
  65:Drivers/CMSIS/Include/cmsis_gcc.h ****   #define __PACKED_STRUCT                        struct __attribute__((packed, aligned(1)))
  66:Drivers/CMSIS/Include/cmsis_gcc.h **** #endif
  67:Drivers/CMSIS/Include/cmsis_gcc.h **** #ifndef   __PACKED_UNION
  68:Drivers/CMSIS/Include/cmsis_gcc.h ****   #define __PACKED_UNION                         union __attribute__((packed, aligned(1)))
  69:Drivers/CMSIS/Include/cmsis_gcc.h **** #endif
  70:Drivers/CMSIS/Include/cmsis_gcc.h **** #ifndef   __UNALIGNED_UINT32        /* deprecated */
  71:Drivers/CMSIS/Include/cmsis_gcc.h ****   #pragma GCC diagnostic push
  72:Drivers/CMSIS/Include/cmsis_gcc.h ****   #pragma GCC diagnostic ignored "-Wpacked"
  73:Drivers/CMSIS/Include/cmsis_gcc.h ****   #pragma GCC diagnostic ignored "-Wattributes"
  74:Drivers/CMSIS/Include/cmsis_gcc.h ****   struct __attribute__((packed)) T_UINT32 { uint32_t v; };
  75:Drivers/CMSIS/Include/cmsis_gcc.h ****   #pragma GCC diagnostic pop
  76:Drivers/CMSIS/Include/cmsis_gcc.h ****   #define __UNALIGNED_UINT32(x)                  (((struct T_UINT32 *)(x))->v)
  77:Drivers/CMSIS/Include/cmsis_gcc.h **** #endif
  78:Drivers/CMSIS/Include/cmsis_gcc.h **** #ifndef   __UNALIGNED_UINT16_WRITE
  79:Drivers/CMSIS/Include/cmsis_gcc.h ****   #pragma GCC diagnostic push
  80:Drivers/CMSIS/Include/cmsis_gcc.h ****   #pragma GCC diagnostic ignored "-Wpacked"
  81:Drivers/CMSIS/Include/cmsis_gcc.h ****   #pragma GCC diagnostic ignored "-Wattributes"
  82:Drivers/CMSIS/Include/cmsis_gcc.h ****   __PACKED_STRUCT T_UINT16_WRITE { uint16_t v; };
  83:Drivers/CMSIS/Include/cmsis_gcc.h ****   #pragma GCC diagnostic pop
  84:Drivers/CMSIS/Include/cmsis_gcc.h ****   #define __UNALIGNED_UINT16_WRITE(addr, val)    (void)((((struct T_UINT16_WRITE *)(void *)(addr))-
  85:Drivers/CMSIS/Include/cmsis_gcc.h **** #endif
  86:Drivers/CMSIS/Include/cmsis_gcc.h **** #ifndef   __UNALIGNED_UINT16_READ
  87:Drivers/CMSIS/Include/cmsis_gcc.h ****   #pragma GCC diagnostic push
  88:Drivers/CMSIS/Include/cmsis_gcc.h ****   #pragma GCC diagnostic ignored "-Wpacked"
  89:Drivers/CMSIS/Include/cmsis_gcc.h ****   #pragma GCC diagnostic ignored "-Wattributes"
  90:Drivers/CMSIS/Include/cmsis_gcc.h ****   __PACKED_STRUCT T_UINT16_READ { uint16_t v; };
  91:Drivers/CMSIS/Include/cmsis_gcc.h ****   #pragma GCC diagnostic pop
  92:Drivers/CMSIS/Include/cmsis_gcc.h ****   #define __UNALIGNED_UINT16_READ(addr)          (((const struct T_UINT16_READ *)(const void *)(add
ARM GAS  C:\Users\AHMEDA~1\AppData\Local\Temp\ccO1z9EI.s 			page 9


  93:Drivers/CMSIS/Include/cmsis_gcc.h **** #endif
  94:Drivers/CMSIS/Include/cmsis_gcc.h **** #ifndef   __UNALIGNED_UINT32_WRITE
  95:Drivers/CMSIS/Include/cmsis_gcc.h ****   #pragma GCC diagnostic push
  96:Drivers/CMSIS/Include/cmsis_gcc.h ****   #pragma GCC diagnostic ignored "-Wpacked"
  97:Drivers/CMSIS/Include/cmsis_gcc.h ****   #pragma GCC diagnostic ignored "-Wattributes"
  98:Drivers/CMSIS/Include/cmsis_gcc.h ****   __PACKED_STRUCT T_UINT32_WRITE { uint32_t v; };
  99:Drivers/CMSIS/Include/cmsis_gcc.h ****   #pragma GCC diagnostic pop
 100:Drivers/CMSIS/Include/cmsis_gcc.h ****   #define __UNALIGNED_UINT32_WRITE(addr, val)    (void)((((struct T_UINT32_WRITE *)(void *)(addr))-
 101:Drivers/CMSIS/Include/cmsis_gcc.h **** #endif
 102:Drivers/CMSIS/Include/cmsis_gcc.h **** #ifndef   __UNALIGNED_UINT32_READ
 103:Drivers/CMSIS/Include/cmsis_gcc.h ****   #pragma GCC diagnostic push
 104:Drivers/CMSIS/Include/cmsis_gcc.h ****   #pragma GCC diagnostic ignored "-Wpacked"
 105:Drivers/CMSIS/Include/cmsis_gcc.h ****   #pragma GCC diagnostic ignored "-Wattributes"
 106:Drivers/CMSIS/Include/cmsis_gcc.h ****   __PACKED_STRUCT T_UINT32_READ { uint32_t v; };
 107:Drivers/CMSIS/Include/cmsis_gcc.h ****   #pragma GCC diagnostic pop
 108:Drivers/CMSIS/Include/cmsis_gcc.h ****   #define __UNALIGNED_UINT32_READ(addr)          (((const struct T_UINT32_READ *)(const void *)(add
 109:Drivers/CMSIS/Include/cmsis_gcc.h **** #endif
 110:Drivers/CMSIS/Include/cmsis_gcc.h **** #ifndef   __ALIGNED
 111:Drivers/CMSIS/Include/cmsis_gcc.h ****   #define __ALIGNED(x)                           __attribute__((aligned(x)))
 112:Drivers/CMSIS/Include/cmsis_gcc.h **** #endif
 113:Drivers/CMSIS/Include/cmsis_gcc.h **** #ifndef   __RESTRICT
 114:Drivers/CMSIS/Include/cmsis_gcc.h ****   #define __RESTRICT                             __restrict
 115:Drivers/CMSIS/Include/cmsis_gcc.h **** #endif
 116:Drivers/CMSIS/Include/cmsis_gcc.h **** 
 117:Drivers/CMSIS/Include/cmsis_gcc.h **** 
 118:Drivers/CMSIS/Include/cmsis_gcc.h **** /* ###########################  Core Function Access  ########################### */
 119:Drivers/CMSIS/Include/cmsis_gcc.h **** /** \ingroup  CMSIS_Core_FunctionInterface
 120:Drivers/CMSIS/Include/cmsis_gcc.h ****     \defgroup CMSIS_Core_RegAccFunctions CMSIS Core Register Access Functions
 121:Drivers/CMSIS/Include/cmsis_gcc.h ****   @{
 122:Drivers/CMSIS/Include/cmsis_gcc.h ****  */
 123:Drivers/CMSIS/Include/cmsis_gcc.h **** 
 124:Drivers/CMSIS/Include/cmsis_gcc.h **** /**
 125:Drivers/CMSIS/Include/cmsis_gcc.h ****   \brief   Enable IRQ Interrupts
 126:Drivers/CMSIS/Include/cmsis_gcc.h ****   \details Enables IRQ interrupts by clearing the I-bit in the CPSR.
 127:Drivers/CMSIS/Include/cmsis_gcc.h ****            Can only be executed in Privileged modes.
 128:Drivers/CMSIS/Include/cmsis_gcc.h ****  */
 129:Drivers/CMSIS/Include/cmsis_gcc.h **** __STATIC_FORCEINLINE void __enable_irq(void)
 130:Drivers/CMSIS/Include/cmsis_gcc.h **** {
 131:Drivers/CMSIS/Include/cmsis_gcc.h ****   __ASM volatile ("cpsie i" : : : "memory");
 132:Drivers/CMSIS/Include/cmsis_gcc.h **** }
 133:Drivers/CMSIS/Include/cmsis_gcc.h **** 
 134:Drivers/CMSIS/Include/cmsis_gcc.h **** 
 135:Drivers/CMSIS/Include/cmsis_gcc.h **** /**
 136:Drivers/CMSIS/Include/cmsis_gcc.h ****   \brief   Disable IRQ Interrupts
 137:Drivers/CMSIS/Include/cmsis_gcc.h ****   \details Disables IRQ interrupts by setting the I-bit in the CPSR.
 138:Drivers/CMSIS/Include/cmsis_gcc.h ****            Can only be executed in Privileged modes.
 139:Drivers/CMSIS/Include/cmsis_gcc.h ****  */
 140:Drivers/CMSIS/Include/cmsis_gcc.h **** __STATIC_FORCEINLINE void __disable_irq(void)
 153              		.loc 2 140 27 view .LVU34
 154              	.LBB8:
 141:Drivers/CMSIS/Include/cmsis_gcc.h **** {
 142:Drivers/CMSIS/Include/cmsis_gcc.h ****   __ASM volatile ("cpsid i" : : : "memory");
 155              		.loc 2 142 3 view .LVU35
 156              		.syntax unified
 157              	@ 142 "Drivers/CMSIS/Include/cmsis_gcc.h" 1
 158 0000 72B6     		cpsid i
 159              	@ 0 "" 2
ARM GAS  C:\Users\AHMEDA~1\AppData\Local\Temp\ccO1z9EI.s 			page 10


 160              		.thumb
 161              		.syntax unified
 162              	.L6:
 163              	.LBE8:
 164              	.LBE7:
 216:Core/Src/main.c ****   while (1)
 165              		.loc 1 216 3 discriminator 1 view .LVU36
 217:Core/Src/main.c ****   {
 218:Core/Src/main.c ****   }
 166              		.loc 1 218 3 discriminator 1 view .LVU37
 216:Core/Src/main.c ****   while (1)
 167              		.loc 1 216 9 discriminator 1 view .LVU38
 168 0002 FEE7     		b	.L6
 169              		.cfi_endproc
 170              	.LFE69:
 172              		.section	.text.MX_USART2_UART_Init,"ax",%progbits
 173              		.align	1
 174              		.syntax unified
 175              		.thumb
 176              		.thumb_func
 177              		.fpu softvfp
 179              	MX_USART2_UART_Init:
 180              	.LFB67:
 150:Core/Src/main.c **** 
 181              		.loc 1 150 1 view -0
 182              		.cfi_startproc
 183              		@ args = 0, pretend = 0, frame = 0
 184              		@ frame_needed = 0, uses_anonymous_args = 0
 185 0000 08B5     		push	{r3, lr}
 186              	.LCFI3:
 187              		.cfi_def_cfa_offset 8
 188              		.cfi_offset 3, -8
 189              		.cfi_offset 14, -4
 159:Core/Src/main.c ****   huart2.Init.BaudRate = 115200;
 190              		.loc 1 159 3 view .LVU40
 159:Core/Src/main.c ****   huart2.Init.BaudRate = 115200;
 191              		.loc 1 159 19 is_stmt 0 view .LVU41
 192 0002 0A48     		ldr	r0, .L11
 193 0004 0A4B     		ldr	r3, .L11+4
 194 0006 0360     		str	r3, [r0]
 160:Core/Src/main.c ****   huart2.Init.WordLength = UART_WORDLENGTH_8B;
 195              		.loc 1 160 3 is_stmt 1 view .LVU42
 160:Core/Src/main.c ****   huart2.Init.WordLength = UART_WORDLENGTH_8B;
 196              		.loc 1 160 24 is_stmt 0 view .LVU43
 197 0008 4FF4E133 		mov	r3, #115200
 198 000c 4360     		str	r3, [r0, #4]
 161:Core/Src/main.c ****   huart2.Init.StopBits = UART_STOPBITS_1;
 199              		.loc 1 161 3 is_stmt 1 view .LVU44
 161:Core/Src/main.c ****   huart2.Init.StopBits = UART_STOPBITS_1;
 200              		.loc 1 161 26 is_stmt 0 view .LVU45
 201 000e 0023     		movs	r3, #0
 202 0010 8360     		str	r3, [r0, #8]
 162:Core/Src/main.c ****   huart2.Init.Parity = UART_PARITY_NONE;
 203              		.loc 1 162 3 is_stmt 1 view .LVU46
 162:Core/Src/main.c ****   huart2.Init.Parity = UART_PARITY_NONE;
 204              		.loc 1 162 24 is_stmt 0 view .LVU47
 205 0012 C360     		str	r3, [r0, #12]
ARM GAS  C:\Users\AHMEDA~1\AppData\Local\Temp\ccO1z9EI.s 			page 11


 163:Core/Src/main.c ****   huart2.Init.Mode = UART_MODE_TX_RX;
 206              		.loc 1 163 3 is_stmt 1 view .LVU48
 163:Core/Src/main.c ****   huart2.Init.Mode = UART_MODE_TX_RX;
 207              		.loc 1 163 22 is_stmt 0 view .LVU49
 208 0014 0361     		str	r3, [r0, #16]
 164:Core/Src/main.c ****   huart2.Init.HwFlowCtl = UART_HWCONTROL_NONE;
 209              		.loc 1 164 3 is_stmt 1 view .LVU50
 164:Core/Src/main.c ****   huart2.Init.HwFlowCtl = UART_HWCONTROL_NONE;
 210              		.loc 1 164 20 is_stmt 0 view .LVU51
 211 0016 0C22     		movs	r2, #12
 212 0018 4261     		str	r2, [r0, #20]
 165:Core/Src/main.c ****   huart2.Init.OverSampling = UART_OVERSAMPLING_16;
 213              		.loc 1 165 3 is_stmt 1 view .LVU52
 165:Core/Src/main.c ****   huart2.Init.OverSampling = UART_OVERSAMPLING_16;
 214              		.loc 1 165 25 is_stmt 0 view .LVU53
 215 001a 8361     		str	r3, [r0, #24]
 166:Core/Src/main.c ****   if (HAL_UART_Init(&huart2) != HAL_OK)
 216              		.loc 1 166 3 is_stmt 1 view .LVU54
 166:Core/Src/main.c ****   if (HAL_UART_Init(&huart2) != HAL_OK)
 217              		.loc 1 166 28 is_stmt 0 view .LVU55
 218 001c C361     		str	r3, [r0, #28]
 167:Core/Src/main.c ****   {
 219              		.loc 1 167 3 is_stmt 1 view .LVU56
 167:Core/Src/main.c ****   {
 220              		.loc 1 167 7 is_stmt 0 view .LVU57
 221 001e FFF7FEFF 		bl	HAL_UART_Init
 222              	.LVL2:
 167:Core/Src/main.c ****   {
 223              		.loc 1 167 6 view .LVU58
 224 0022 00B9     		cbnz	r0, .L10
 175:Core/Src/main.c **** 
 225              		.loc 1 175 1 view .LVU59
 226 0024 08BD     		pop	{r3, pc}
 227              	.L10:
 169:Core/Src/main.c ****   }
 228              		.loc 1 169 5 is_stmt 1 view .LVU60
 229 0026 FFF7FEFF 		bl	Error_Handler
 230              	.LVL3:
 231              	.L12:
 232 002a 00BF     		.align	2
 233              	.L11:
 234 002c 00000000 		.word	.LANCHOR0
 235 0030 00440040 		.word	1073759232
 236              		.cfi_endproc
 237              	.LFE67:
 239              		.section	.text.SystemClock_Config,"ax",%progbits
 240              		.align	1
 241              		.global	SystemClock_Config
 242              		.syntax unified
 243              		.thumb
 244              		.thumb_func
 245              		.fpu softvfp
 247              	SystemClock_Config:
 248              	.LFB66:
 111:Core/Src/main.c ****   RCC_OscInitTypeDef RCC_OscInitStruct = {0};
 249              		.loc 1 111 1 view -0
 250              		.cfi_startproc
ARM GAS  C:\Users\AHMEDA~1\AppData\Local\Temp\ccO1z9EI.s 			page 12


 251              		@ args = 0, pretend = 0, frame = 64
 252              		@ frame_needed = 0, uses_anonymous_args = 0
 253 0000 00B5     		push	{lr}
 254              	.LCFI4:
 255              		.cfi_def_cfa_offset 4
 256              		.cfi_offset 14, -4
 257 0002 91B0     		sub	sp, sp, #68
 258              	.LCFI5:
 259              		.cfi_def_cfa_offset 72
 112:Core/Src/main.c ****   RCC_ClkInitTypeDef RCC_ClkInitStruct = {0};
 260              		.loc 1 112 3 view .LVU62
 112:Core/Src/main.c ****   RCC_ClkInitTypeDef RCC_ClkInitStruct = {0};
 261              		.loc 1 112 22 is_stmt 0 view .LVU63
 262 0004 2822     		movs	r2, #40
 263 0006 0021     		movs	r1, #0
 264 0008 06A8     		add	r0, sp, #24
 265 000a FFF7FEFF 		bl	memset
 266              	.LVL4:
 113:Core/Src/main.c **** 
 267              		.loc 1 113 3 is_stmt 1 view .LVU64
 113:Core/Src/main.c **** 
 268              		.loc 1 113 22 is_stmt 0 view .LVU65
 269 000e 0023     		movs	r3, #0
 270 0010 0193     		str	r3, [sp, #4]
 271 0012 0293     		str	r3, [sp, #8]
 272 0014 0393     		str	r3, [sp, #12]
 273 0016 0493     		str	r3, [sp, #16]
 274 0018 0593     		str	r3, [sp, #20]
 118:Core/Src/main.c ****   RCC_OscInitStruct.HSEState = RCC_HSE_ON;
 275              		.loc 1 118 3 is_stmt 1 view .LVU66
 118:Core/Src/main.c ****   RCC_OscInitStruct.HSEState = RCC_HSE_ON;
 276              		.loc 1 118 36 is_stmt 0 view .LVU67
 277 001a 0122     		movs	r2, #1
 278 001c 0692     		str	r2, [sp, #24]
 119:Core/Src/main.c ****   RCC_OscInitStruct.HSEPredivValue = RCC_HSE_PREDIV_DIV1;
 279              		.loc 1 119 3 is_stmt 1 view .LVU68
 119:Core/Src/main.c ****   RCC_OscInitStruct.HSEPredivValue = RCC_HSE_PREDIV_DIV1;
 280              		.loc 1 119 30 is_stmt 0 view .LVU69
 281 001e 4FF48033 		mov	r3, #65536
 282 0022 0793     		str	r3, [sp, #28]
 120:Core/Src/main.c ****   RCC_OscInitStruct.HSIState = RCC_HSI_ON;
 283              		.loc 1 120 3 is_stmt 1 view .LVU70
 121:Core/Src/main.c ****   RCC_OscInitStruct.PLL.PLLState = RCC_PLL_ON;
 284              		.loc 1 121 3 view .LVU71
 121:Core/Src/main.c ****   RCC_OscInitStruct.PLL.PLLState = RCC_PLL_ON;
 285              		.loc 1 121 30 is_stmt 0 view .LVU72
 286 0024 0A92     		str	r2, [sp, #40]
 122:Core/Src/main.c ****   RCC_OscInitStruct.PLL.PLLSource = RCC_PLLSOURCE_HSE;
 287              		.loc 1 122 3 is_stmt 1 view .LVU73
 122:Core/Src/main.c ****   RCC_OscInitStruct.PLL.PLLSource = RCC_PLLSOURCE_HSE;
 288              		.loc 1 122 34 is_stmt 0 view .LVU74
 289 0026 0222     		movs	r2, #2
 290 0028 0D92     		str	r2, [sp, #52]
 123:Core/Src/main.c ****   RCC_OscInitStruct.PLL.PLLMUL = RCC_PLL_MUL9;
 291              		.loc 1 123 3 is_stmt 1 view .LVU75
 123:Core/Src/main.c ****   RCC_OscInitStruct.PLL.PLLMUL = RCC_PLL_MUL9;
 292              		.loc 1 123 35 is_stmt 0 view .LVU76
ARM GAS  C:\Users\AHMEDA~1\AppData\Local\Temp\ccO1z9EI.s 			page 13


 293 002a 0E93     		str	r3, [sp, #56]
 124:Core/Src/main.c ****   if (HAL_RCC_OscConfig(&RCC_OscInitStruct) != HAL_OK)
 294              		.loc 1 124 3 is_stmt 1 view .LVU77
 124:Core/Src/main.c ****   if (HAL_RCC_OscConfig(&RCC_OscInitStruct) != HAL_OK)
 295              		.loc 1 124 32 is_stmt 0 view .LVU78
 296 002c 4FF4E013 		mov	r3, #1835008
 297 0030 0F93     		str	r3, [sp, #60]
 125:Core/Src/main.c ****   {
 298              		.loc 1 125 3 is_stmt 1 view .LVU79
 125:Core/Src/main.c ****   {
 299              		.loc 1 125 7 is_stmt 0 view .LVU80
 300 0032 06A8     		add	r0, sp, #24
 301 0034 FFF7FEFF 		bl	HAL_RCC_OscConfig
 302              	.LVL5:
 125:Core/Src/main.c ****   {
 303              		.loc 1 125 6 view .LVU81
 304 0038 80B9     		cbnz	r0, .L17
 131:Core/Src/main.c ****                               |RCC_CLOCKTYPE_PCLK1|RCC_CLOCKTYPE_PCLK2;
 305              		.loc 1 131 3 is_stmt 1 view .LVU82
 131:Core/Src/main.c ****                               |RCC_CLOCKTYPE_PCLK1|RCC_CLOCKTYPE_PCLK2;
 306              		.loc 1 131 31 is_stmt 0 view .LVU83
 307 003a 0F23     		movs	r3, #15
 308 003c 0193     		str	r3, [sp, #4]
 133:Core/Src/main.c ****   RCC_ClkInitStruct.AHBCLKDivider = RCC_SYSCLK_DIV1;
 309              		.loc 1 133 3 is_stmt 1 view .LVU84
 133:Core/Src/main.c ****   RCC_ClkInitStruct.AHBCLKDivider = RCC_SYSCLK_DIV1;
 310              		.loc 1 133 34 is_stmt 0 view .LVU85
 311 003e 0221     		movs	r1, #2
 312 0040 0291     		str	r1, [sp, #8]
 134:Core/Src/main.c ****   RCC_ClkInitStruct.APB1CLKDivider = RCC_HCLK_DIV2;
 313              		.loc 1 134 3 is_stmt 1 view .LVU86
 134:Core/Src/main.c ****   RCC_ClkInitStruct.APB1CLKDivider = RCC_HCLK_DIV2;
 314              		.loc 1 134 35 is_stmt 0 view .LVU87
 315 0042 0023     		movs	r3, #0
 316 0044 0393     		str	r3, [sp, #12]
 135:Core/Src/main.c ****   RCC_ClkInitStruct.APB2CLKDivider = RCC_HCLK_DIV1;
 317              		.loc 1 135 3 is_stmt 1 view .LVU88
 135:Core/Src/main.c ****   RCC_ClkInitStruct.APB2CLKDivider = RCC_HCLK_DIV1;
 318              		.loc 1 135 36 is_stmt 0 view .LVU89
 319 0046 4FF48062 		mov	r2, #1024
 320 004a 0492     		str	r2, [sp, #16]
 136:Core/Src/main.c **** 
 321              		.loc 1 136 3 is_stmt 1 view .LVU90
 136:Core/Src/main.c **** 
 322              		.loc 1 136 36 is_stmt 0 view .LVU91
 323 004c 0593     		str	r3, [sp, #20]
 138:Core/Src/main.c ****   {
 324              		.loc 1 138 3 is_stmt 1 view .LVU92
 138:Core/Src/main.c ****   {
 325              		.loc 1 138 7 is_stmt 0 view .LVU93
 326 004e 01A8     		add	r0, sp, #4
 327 0050 FFF7FEFF 		bl	HAL_RCC_ClockConfig
 328              	.LVL6:
 138:Core/Src/main.c ****   {
 329              		.loc 1 138 6 view .LVU94
 330 0054 20B9     		cbnz	r0, .L18
 142:Core/Src/main.c **** 
ARM GAS  C:\Users\AHMEDA~1\AppData\Local\Temp\ccO1z9EI.s 			page 14


 331              		.loc 1 142 1 view .LVU95
 332 0056 11B0     		add	sp, sp, #68
 333              	.LCFI6:
 334              		.cfi_remember_state
 335              		.cfi_def_cfa_offset 4
 336              		@ sp needed
 337 0058 5DF804FB 		ldr	pc, [sp], #4
 338              	.L17:
 339              	.LCFI7:
 340              		.cfi_restore_state
 127:Core/Src/main.c ****   }
 341              		.loc 1 127 5 is_stmt 1 view .LVU96
 342 005c FFF7FEFF 		bl	Error_Handler
 343              	.LVL7:
 344              	.L18:
 140:Core/Src/main.c ****   }
 345              		.loc 1 140 5 view .LVU97
 346 0060 FFF7FEFF 		bl	Error_Handler
 347              	.LVL8:
 348              		.cfi_endproc
 349              	.LFE66:
 351              		.section	.text.main,"ax",%progbits
 352              		.align	1
 353              		.global	main
 354              		.syntax unified
 355              		.thumb
 356              		.thumb_func
 357              		.fpu softvfp
 359              	main:
 360              	.LFB65:
  67:Core/Src/main.c ****   /* USER CODE BEGIN 1 */
 361              		.loc 1 67 1 view -0
 362              		.cfi_startproc
 363              		@ Volatile: function does not return.
 364              		@ args = 0, pretend = 0, frame = 0
 365              		@ frame_needed = 0, uses_anonymous_args = 0
 366 0000 08B5     		push	{r3, lr}
 367              	.LCFI8:
 368              		.cfi_def_cfa_offset 8
 369              		.cfi_offset 3, -8
 370              		.cfi_offset 14, -4
  75:Core/Src/main.c **** 
 371              		.loc 1 75 3 view .LVU99
 372 0002 FFF7FEFF 		bl	HAL_Init
 373              	.LVL9:
  82:Core/Src/main.c **** 
 374              		.loc 1 82 3 view .LVU100
 375 0006 FFF7FEFF 		bl	SystemClock_Config
 376              	.LVL10:
  89:Core/Src/main.c ****   MX_USART2_UART_Init();
 377              		.loc 1 89 3 view .LVU101
 378 000a FFF7FEFF 		bl	MX_GPIO_Init
 379              	.LVL11:
  90:Core/Src/main.c ****   /* USER CODE BEGIN 2 */
 380              		.loc 1 90 3 view .LVU102
 381 000e FFF7FEFF 		bl	MX_USART2_UART_Init
 382              	.LVL12:
ARM GAS  C:\Users\AHMEDA~1\AppData\Local\Temp\ccO1z9EI.s 			page 15


 383              	.L20:
  97:Core/Src/main.c ****   {
 384              		.loc 1 97 3 discriminator 1 view .LVU103
 102:Core/Src/main.c ****   /* USER CODE END 3 */
 385              		.loc 1 102 3 discriminator 1 view .LVU104
  97:Core/Src/main.c ****   {
 386              		.loc 1 97 9 discriminator 1 view .LVU105
 387 0012 FEE7     		b	.L20
 388              		.cfi_endproc
 389              	.LFE65:
 391              		.global	huart2
 392              		.section	.bss.huart2,"aw",%nobits
 393              		.align	2
 394              		.set	.LANCHOR0,. + 0
 397              	huart2:
 398 0000 00000000 		.space	68
 398      00000000 
 398      00000000 
 398      00000000 
 398      00000000 
 399              		.text
 400              	.Letext0:
 401              		.file 3 "i:\\evse\\dev\\tool\\gcc-arm-none-eabi-10.3-2021.07-win32\\gcc-arm-none-eabi-10.3-2021.07
 402              		.file 4 "i:\\evse\\dev\\tool\\gcc-arm-none-eabi-10.3-2021.07-win32\\gcc-arm-none-eabi-10.3-2021.07
 403              		.file 5 "Drivers/CMSIS/Device/ST/STM32F1xx/Include/stm32f103xb.h"
 404              		.file 6 "Drivers/STM32F1xx_HAL_Driver/Inc/stm32f1xx_hal_def.h"
 405              		.file 7 "Drivers/STM32F1xx_HAL_Driver/Inc/stm32f1xx_hal_rcc.h"
 406              		.file 8 "Drivers/STM32F1xx_HAL_Driver/Inc/stm32f1xx_hal_rcc_ex.h"
 407              		.file 9 "Drivers/STM32F1xx_HAL_Driver/Inc/stm32f1xx_hal_gpio.h"
 408              		.file 10 "Drivers/STM32F1xx_HAL_Driver/Inc/stm32f1xx_hal_dma.h"
 409              		.file 11 "Drivers/STM32F1xx_HAL_Driver/Inc/stm32f1xx_hal_uart.h"
 410              		.file 12 "Drivers/STM32F1xx_HAL_Driver/Inc/stm32f1xx_hal.h"
 411              		.file 13 "<built-in>"
ARM GAS  C:\Users\AHMEDA~1\AppData\Local\Temp\ccO1z9EI.s 			page 16

